target datalayout = "e-m:e-p270:32:32-p271:32:32-p272:64:64-i64:64-i128:128-f80:128-n8:16:32:64-S128"
target triple = "x86_64-pc-linux-gnu"

%union.BIO_sock_info_u = type { ptr }
%struct.in_addr = type { i32 }

@.str.44 = private unnamed_addr constant [33 x i8] c"../openssl/test/radix/quic_ops.c\00", align 1
@.str.63 = private unnamed_addr constant [56 x i8] c"ssl_create_bound_socket(local_port, &s_fd, actual_port)\00", align 1
@.str.64 = private unnamed_addr constant [37 x i8] c"bio = BIO_new_dgram(s_fd, BIO_CLOSE)\00", align 1
@.str.65 = private unnamed_addr constant [16 x i8] c"BIO_up_ref(bio)\00", align 1
@.str.66 = private unnamed_addr constant [3 x i8] c"fd\00", align 1
@.str.67 = private unnamed_addr constant [2 x i8] c"0\00", align 1
@.str.68 = private unnamed_addr constant [23 x i8] c"BIO_socket_nbio(fd, 1)\00", align 1
@.str.69 = private unnamed_addr constant [22 x i8] c"addr = BIO_ADDR_new()\00", align 1
@.str.70 = private unnamed_addr constant [54 x i8] c"BIO_ADDR_rawmake(addr, AF_INET, &ina, sizeof(ina), 0)\00", align 1
@.str.71 = private unnamed_addr constant [22 x i8] c"BIO_bind(fd, addr, 0)\00", align 1
@.str.72 = private unnamed_addr constant [48 x i8] c"BIO_sock_info(fd, BIO_SOCK_INFO_ADDRESS, &info)\00", align 1
@.str.73 = private unnamed_addr constant [23 x i8] c"BIO_ADDR_rawport(addr)\00", align 1

; Function Attrs: inlinehint nounwind uwtable
define internal i32 @__bswap_32(i32 noundef %0) #5 {
  %2 = alloca i32, align 4
  store i32 %0, ptr %2, align 4, !tbaa !9
  %3 = load i32, ptr %2, align 4, !tbaa !9
  %4 = and i32 %3, -16777216
  %5 = lshr i32 %4, 24
  %6 = load i32, ptr %2, align 4, !tbaa !9
  %7 = and i32 %6, 16711680
  %8 = lshr i32 %7, 8
  %9 = or i32 %5, %8
  %10 = load i32, ptr %2, align 4, !tbaa !9
  %11 = and i32 %10, 65280
  %12 = shl i32 %11, 8
  %13 = or i32 %9, %12
  %14 = load i32, ptr %2, align 4, !tbaa !9
  %15 = and i32 %14, 255
  %16 = shl i32 %15, 24
  %17 = or i32 %13, %16
  ret i32 %17
}

; Function Attrs: nounwind uwtable
define internal i32 @ssl_create_bound_socket(i16 noundef zeroext %0, ptr noundef %1, ptr noundef %2) #0 {
  %4 = alloca i16, align 2
  %5 = alloca ptr, align 8
  %6 = alloca ptr, align 8
  %7 = alloca i32, align 4
  %8 = alloca i32, align 4
  %9 = alloca ptr, align 8
  %10 = alloca %union.BIO_sock_info_u, align 8
  %11 = alloca %struct.in_addr, align 4
  store i16 %0, ptr %4, align 2, !tbaa !79
  store ptr %1, ptr %5, align 8, !tbaa !77
  store ptr %2, ptr %6, align 8, !tbaa !81
  call void @llvm.lifetime.start.p0(i64 4, ptr %7) #9
  store i32 0, ptr %7, align 4, !tbaa !9
  call void @llvm.lifetime.start.p0(i64 4, ptr %8) #9
  store i32 -1, ptr %8, align 4, !tbaa !9
  call void @llvm.lifetime.start.p0(i64 8, ptr %9) #9
  store ptr null, ptr %9, align 8, !tbaa !55
  call void @llvm.lifetime.start.p0(i64 8, ptr %10) #9
  call void @llvm.lifetime.start.p0(i64 4, ptr %11) #9
  %12 = call i32 @__bswap_32(i32 noundef 2130706433)
  %13 = getelementptr inbounds nuw %struct.in_addr, ptr %11, i32 0, i32 0
  store i32 %12, ptr %13, align 4, !tbaa !86
  %14 = call i32 @BIO_socket(i32 noundef 2, i32 noundef 2, i32 noundef 17, i32 noundef 0)
  store i32 %14, ptr %8, align 4, !tbaa !9
  %15 = load i32, ptr %8, align 4, !tbaa !9
  %16 = call i32 @test_int_ge(ptr noundef @.str.44, i32 noundef 75, ptr noundef @.str.66, ptr noundef @.str.67, i32 noundef %15, i32 noundef 0)
  %17 = icmp ne i32 %16, 0
  br i1 %17, label %19, label %18

18:                                               ; preds = %3
  br label %66

19:                                               ; preds = %3
  %20 = load i32, ptr %8, align 4, !tbaa !9
  %21 = call i32 @BIO_socket_nbio(i32 noundef %20, i32 noundef 1)
  %22 = icmp ne i32 %21, 0
  %23 = zext i1 %22 to i32
  %24 = call i32 @test_true(ptr noundef @.str.44, i32 noundef 78, ptr noundef @.str.68, i32 noundef %23)
  %25 = icmp ne i32 %24, 0
  br i1 %25, label %27, label %26

26:                                               ; preds = %19
  br label %66

27:                                               ; preds = %19
  %28 = call ptr @BIO_ADDR_new()
  store ptr %28, ptr %9, align 8, !tbaa !55
  %29 = call i32 @test_ptr(ptr noundef @.str.44, i32 noundef 81, ptr noundef @.str.69, ptr noundef %28)
  %30 = icmp ne i32 %29, 0
  br i1 %30, label %32, label %31

31:                                               ; preds = %27
  br label %66

32:                                               ; preds = %27
  %33 = load ptr, ptr %9, align 8, !tbaa !55
  %34 = call i32 @BIO_ADDR_rawmake(ptr noundef %33, i32 noundef 2, ptr noundef %11, i64 noundef 4, i16 noundef zeroext 0)
  %35 = icmp ne i32 %34, 0
  %36 = zext i1 %35 to i32
  %37 = call i32 @test_true(ptr noundef @.str.44, i32 noundef 85, ptr noundef @.str.70, i32 noundef %36)
  %38 = icmp ne i32 %37, 0
  br i1 %38, label %40, label %39

39:                                               ; preds = %32
  br label %66

40:                                               ; preds = %32
  %41 = load i32, ptr %8, align 4, !tbaa !9
  %42 = load ptr, ptr %9, align 8, !tbaa !55
  %43 = call i32 @BIO_bind(i32 noundef %41, ptr noundef %42, i32 noundef 0)
  %44 = icmp ne i32 %43, 0
  %45 = zext i1 %44 to i32
  %46 = call i32 @test_true(ptr noundef @.str.44, i32 noundef 88, ptr noundef @.str.71, i32 noundef %45)
  %47 = icmp ne i32 %46, 0
  br i1 %47, label %49, label %48

48:                                               ; preds = %40
  br label %66

49:                                               ; preds = %40
  %50 = load ptr, ptr %9, align 8, !tbaa !55
  store ptr %50, ptr %10, align 8, !tbaa !57
  %51 = load i32, ptr %8, align 4, !tbaa !9
  %52 = call i32 @BIO_sock_info(i32 noundef %51, i32 noundef 0, ptr noundef %10)
  %53 = icmp ne i32 %52, 0
  %54 = zext i1 %53 to i32
  %55 = call i32 @test_true(ptr noundef @.str.44, i32 noundef 92, ptr noundef @.str.72, i32 noundef %54)
  %56 = icmp ne i32 %55, 0
  br i1 %56, label %58, label %57

57:                                               ; preds = %49
  br label %66

58:                                               ; preds = %49
  %59 = load ptr, ptr %9, align 8, !tbaa !55
  %60 = call zeroext i16 @BIO_ADDR_rawport(ptr noundef %59)
  %61 = zext i16 %60 to i32
  %62 = call i32 @test_int_gt(ptr noundef @.str.44, i32 noundef 95, ptr noundef @.str.73, ptr noundef @.str.67, i32 noundef %61, i32 noundef 0)
  %63 = icmp ne i32 %62, 0
  br i1 %63, label %65, label %64

64:                                               ; preds = %58
  br label %66

65:                                               ; preds = %58
  store i32 1, ptr %7, align 4, !tbaa !9
  br label %66

66:                                               ; preds = %65, %64, %57, %48, %39, %31, %26, %18
  %67 = load i32, ptr %7, align 4, !tbaa !9
  %68 = icmp ne i32 %67, 0
  br i1 %68, label %75, label %69

69:                                               ; preds = %66
  %70 = load i32, ptr %8, align 4, !tbaa !9
  %71 = icmp sge i32 %70, 0
  br i1 %71, label %72, label %75

72:                                               ; preds = %69
  %73 = load i32, ptr %8, align 4, !tbaa !9
  %74 = call i32 @BIO_closesocket(i32 noundef %73)
  br label %89

75:                                               ; preds = %69, %66
  %76 = load i32, ptr %7, align 4, !tbaa !9
  %77 = icmp ne i32 %76, 0
  br i1 %77, label %78, label %88

78:                                               ; preds = %75
  %79 = load i32, ptr %8, align 4, !tbaa !9
  %80 = load ptr, ptr %5, align 8, !tbaa !77
  store i32 %79, ptr %80, align 4, !tbaa !9
  %81 = load ptr, ptr %6, align 8, !tbaa !81
  %82 = icmp ne ptr %81, null
  br i1 %82, label %83, label %87

83:                                               ; preds = %78
  %84 = load ptr, ptr %9, align 8, !tbaa !55
  %85 = call zeroext i16 @BIO_ADDR_rawport(ptr noundef %84)
  %86 = load ptr, ptr %6, align 8, !tbaa !81
  store i16 %85, ptr %86, align 2, !tbaa !79
  br label %87

87:                                               ; preds = %83, %78
  br label %88

88:                                               ; preds = %87, %75
  br label %89

89:                                               ; preds = %88, %72
  %90 = load ptr, ptr %9, align 8, !tbaa !55
  call void @BIO_ADDR_free(ptr noundef %90)
  %91 = load i32, ptr %7, align 4, !tbaa !9
  call void @llvm.lifetime.end.p0(i64 4, ptr %11) #9
  call void @llvm.lifetime.end.p0(i64 8, ptr %10) #9
  call void @llvm.lifetime.end.p0(i64 8, ptr %9) #9
  call void @llvm.lifetime.end.p0(i64 4, ptr %8) #9
  call void @llvm.lifetime.end.p0(i64 4, ptr %7) #9
  ret i32 %91
}

; Function Attrs: nounwind uwtable
define internal i32 @ssl_attach_bio_dgram(ptr noundef %0, i16 noundef zeroext %1, ptr noundef %2) #0 {
  %4 = alloca i32, align 4
  %5 = alloca ptr, align 8
  %6 = alloca i16, align 2
  %7 = alloca ptr, align 8
  %8 = alloca i32, align 4
  %9 = alloca ptr, align 8
  %10 = alloca i32, align 4
  store ptr %0, ptr %5, align 8, !tbaa !49
  store i16 %1, ptr %6, align 2, !tbaa !79
  store ptr %2, ptr %7, align 8, !tbaa !81
  call void @llvm.lifetime.start.p0(i64 4, ptr %8) #9
  store i32 -1, ptr %8, align 4, !tbaa !9
  call void @llvm.lifetime.start.p0(i64 8, ptr %9) #9
  %11 = load i16, ptr %6, align 2, !tbaa !79
  %12 = load ptr, ptr %7, align 8, !tbaa !81
  %13 = call i32 @ssl_create_bound_socket(i16 noundef zeroext %11, ptr noundef %8, ptr noundef %12)
  %14 = icmp ne i32 %13, 0
  %15 = zext i1 %14 to i32
  %16 = call i32 @test_true(ptr noundef @.str.44, i32 noundef 117, ptr noundef @.str.63, i32 noundef %15)
  %17 = icmp ne i32 %16, 0
  br i1 %17, label %19, label %18

18:                                               ; preds = %3
  store i32 0, ptr %4, align 4
  store i32 1, ptr %10, align 4
  br label %40

19:                                               ; preds = %3
  %20 = load i32, ptr %8, align 4, !tbaa !9
  %21 = call ptr @BIO_new_dgram(i32 noundef %20, i32 noundef 1)
  store ptr %21, ptr %9, align 8, !tbaa !13
  %22 = call i32 @test_ptr(ptr noundef @.str.44, i32 noundef 120, ptr noundef @.str.64, ptr noundef %21)
  %23 = icmp ne i32 %22, 0
  br i1 %23, label %27, label %24

24:                                               ; preds = %19
  %25 = load i32, ptr %8, align 4, !tbaa !9
  %26 = call i32 @BIO_closesocket(i32 noundef %25)
  store i32 0, ptr %4, align 4
  store i32 1, ptr %10, align 4
  br label %40

27:                                               ; preds = %19
  %28 = load ptr, ptr %5, align 8, !tbaa !49
  %29 = load ptr, ptr %9, align 8, !tbaa !13
  call void @SSL_set0_rbio(ptr noundef %28, ptr noundef %29)
  %30 = load ptr, ptr %9, align 8, !tbaa !13
  %31 = call i32 @BIO_up_ref(ptr noundef %30)
  %32 = icmp ne i32 %31, 0
  %33 = zext i1 %32 to i32
  %34 = call i32 @test_true(ptr noundef @.str.44, i32 noundef 126, ptr noundef @.str.65, i32 noundef %33)
  %35 = icmp ne i32 %34, 0
  br i1 %35, label %37, label %36

36:                                               ; preds = %27
  store i32 0, ptr %4, align 4
  store i32 1, ptr %10, align 4
  br label %40

37:                                               ; preds = %27
  %38 = load ptr, ptr %5, align 8, !tbaa !49
  %39 = load ptr, ptr %9, align 8, !tbaa !13
  call void @SSL_set0_wbio(ptr noundef %38, ptr noundef %39)
  store i32 1, ptr %4, align 4
  store i32 1, ptr %10, align 4
  br label %40

40:                                               ; preds = %37, %36, %24, %18
  call void @llvm.lifetime.end.p0(i64 8, ptr %9) #9
  call void @llvm.lifetime.end.p0(i64 4, ptr %8) #9
  %41 = load i32, ptr %4, align 4
  ret i32 %41
}