; Function Attrs: nounwind uwtable
define internal fastcc range(i32 0, 2) i32 @ssl_attach_bio_dgram(ptr noundef %0) unnamed_addr #1 {
  %2 = alloca %union.BIO_sock_info_u, align 8
  %3 = alloca %struct.in_addr, align 4
  call void @llvm.lifetime.start.p0(i64 8, ptr nonnull %2) #12
  call void @llvm.lifetime.start.p0(i64 4, ptr nonnull %3) #12
  store i32 16777343, ptr %3, align 4, !tbaa !112
  %4 = tail call i32 @BIO_socket(i32 noundef 2, i32 noundef 2, i32 noundef 17, i32 noundef 0) #12
  %5 = tail call i32 @test_int_ge(ptr noundef nonnull @.str.44, i32 noundef 75, ptr noundef nonnull @.str.66, ptr noundef nonnull @.str.67, i32 noundef %4, i32 noundef 0) #12
  %.not.i = icmp eq i32 %5, 0
  br i1 %.not.i, label %33, label %6

6:                                                ; preds = %1
  %7 = tail call i32 @BIO_socket_nbio(i32 noundef %4, i32 noundef 1) #12
  %8 = icmp ne i32 %7, 0
  %9 = zext i1 %8 to i32
  %10 = tail call i32 @test_true(ptr noundef nonnull @.str.44, i32 noundef 78, ptr noundef nonnull @.str.68, i32 noundef %9) #12
  %.not22.i = icmp eq i32 %10, 0
  br i1 %.not22.i, label %33, label %11

11:                                               ; preds = %6
  %12 = tail call ptr @BIO_ADDR_new() #12
  %13 = tail call i32 @test_ptr(ptr noundef nonnull @.str.44, i32 noundef 81, ptr noundef nonnull @.str.69, ptr noundef %12) #12
  %.not23.i = icmp eq i32 %13, 0
  br i1 %.not23.i, label %33, label %14

14:                                               ; preds = %11
  %15 = call i32 @BIO_ADDR_rawmake(ptr noundef %12, i32 noundef 2, ptr noundef nonnull %3, i64 noundef 4, i16 noundef zeroext 0) #12
  %16 = icmp ne i32 %15, 0
  %17 = zext i1 %16 to i32
  %18 = call i32 @test_true(ptr noundef nonnull @.str.44, i32 noundef 85, ptr noundef nonnull @.str.70, i32 noundef %17) #12
  %.not24.i = icmp eq i32 %18, 0
  br i1 %.not24.i, label %33, label %19

19:                                               ; preds = %14
  %20 = call i32 @BIO_bind(i32 noundef %4, ptr noundef %12, i32 noundef 0) #12
  %21 = icmp ne i32 %20, 0
  %22 = zext i1 %21 to i32
  %23 = call i32 @test_true(ptr noundef nonnull @.str.44, i32 noundef 88, ptr noundef nonnull @.str.71, i32 noundef %22) #12
  %.not25.i = icmp eq i32 %23, 0
  br i1 %.not25.i, label %33, label %24

24:                                               ; preds = %19
  store ptr %12, ptr %2, align 8, !tbaa !21
  %25 = call i32 @BIO_sock_info(i32 noundef %4, i32 noundef 0, ptr noundef nonnull %2) #12
  %26 = icmp ne i32 %25, 0
  %27 = zext i1 %26 to i32
  %28 = call i32 @test_true(ptr noundef nonnull @.str.44, i32 noundef 92, ptr noundef nonnull @.str.72, i32 noundef %27) #12
  %.not26.i = icmp eq i32 %28, 0
  br i1 %.not26.i, label %33, label %29

29:                                               ; preds = %24
  %30 = call zeroext i16 @BIO_ADDR_rawport(ptr noundef %12) #12
  %31 = zext i16 %30 to i32
  %32 = call i32 @test_int_gt(ptr noundef nonnull @.str.44, i32 noundef 95, ptr noundef nonnull @.str.73, ptr noundef nonnull @.str.67, i32 noundef %31, i32 noundef 0) #12
  %.not27.i = icmp eq i32 %32, 0
  %not..not27.i = xor i1 %.not27.i, true
  %spec.select29.i = zext i1 %not..not27.i to i32
  br label %33

33:                                               ; preds = %29, %24, %19, %14, %11, %6, %1
  %34 = phi i1 [ true, %24 ], [ true, %19 ], [ true, %14 ], [ true, %11 ], [ true, %6 ], [ true, %1 ], [ %.not27.i, %29 ]
  %.019.i = phi i32 [ 0, %24 ], [ 0, %19 ], [ 0, %14 ], [ 0, %11 ], [ 0, %6 ], [ 0, %1 ], [ %spec.select29.i, %29 ]
  %.0.i = phi ptr [ %12, %24 ], [ %12, %19 ], [ %12, %14 ], [ %12, %11 ], [ null, %6 ], [ null, %1 ], [ %12, %29 ]
  %35 = icmp sgt i32 %4, -1
  %or.cond.i = and i1 %35, %34
  br i1 %or.cond.i, label %36, label %38

36:                                               ; preds = %33
  %37 = call i32 @BIO_closesocket(i32 noundef %4) #12
  br label %ssl_create_bound_socket.exit

38:                                               ; preds = %33
  %spec.select = select i1 %34, i32 -1, i32 %4
  br label %ssl_create_bound_socket.exit

ssl_create_bound_socket.exit:                     ; preds = %38, %36
  %.02 = phi i32 [ -1, %36 ], [ %spec.select, %38 ]
  call void @BIO_ADDR_free(ptr noundef %.0.i) #12
  call void @llvm.lifetime.end.p0(i64 4, ptr nonnull %3) #12
  call void @llvm.lifetime.end.p0(i64 8, ptr nonnull %2) #12
  %39 = call i32 @test_true(ptr noundef nonnull @.str.44, i32 noundef 117, ptr noundef nonnull @.str.63, i32 noundef %.019.i) #12
  %.not = icmp eq i32 %39, 0
  br i1 %.not, label %51, label %40

40:                                               ; preds = %ssl_create_bound_socket.exit
  %41 = call ptr @BIO_new_dgram(i32 noundef %.02, i32 noundef 1) #12
  %42 = call i32 @test_ptr(ptr noundef nonnull @.str.44, i32 noundef 120, ptr noundef nonnull @.str.64, ptr noundef %41) #12
  %.not7 = icmp eq i32 %42, 0
  br i1 %.not7, label %43, label %45

43:                                               ; preds = %40
  %44 = call i32 @BIO_closesocket(i32 noundef %.02) #12
  br label %51

45:                                               ; preds = %40
  call void @SSL_set0_rbio(ptr noundef %0, ptr noundef %41) #12
  %46 = call i32 @BIO_up_ref(ptr noundef %41) #12
  %47 = icmp ne i32 %46, 0
  %48 = zext i1 %47 to i32
  %49 = call i32 @test_true(ptr noundef nonnull @.str.44, i32 noundef 126, ptr noundef nonnull @.str.65, i32 noundef %48) #12
  %.not8 = icmp eq i32 %49, 0
  br i1 %.not8, label %51, label %50

50:                                               ; preds = %45
  call void @SSL_set0_wbio(ptr noundef %0, ptr noundef %41) #12
  br label %51

51:                                               ; preds = %45, %ssl_create_bound_socket.exit, %50, %43
  %.0 = phi i32 [ 1, %50 ], [ 0, %43 ], [ 0, %ssl_create_bound_socket.exit ], [ 0, %45 ]
  ret i32 %.0
}